; Function Attrs: nounwind uwtable
define internal i64 @incrblobWideSeek(ptr noundef captures(none) %0, i64 noundef %1, i32 noundef %2, ptr readnone captures(none) %3) #0 {
  switch i32 %2, label %._crit_edge [
    i32 0, label %5
    i32 1, label %7
    i32 2, label %11
  ]

._crit_edge:                                      ; preds = %4
  %.phi.trans.insert = getelementptr inbounds nuw i8, ptr %0, i64 16
  %.pre = load i64, ptr %.phi.trans.insert, align 8, !tbaa !210
  br label %17

5:                                                ; preds = %4
  %6 = getelementptr inbounds nuw i8, ptr %0, i64 16
  store i64 %1, ptr %6, align 8, !tbaa !210
  br label %17

7:                                                ; preds = %4
  %8 = getelementptr inbounds nuw i8, ptr %0, i64 16
  %9 = load i64, ptr %8, align 8, !tbaa !210
  %10 = add nsw i64 %9, %1
  store i64 %10, ptr %8, align 8, !tbaa !210
  br label %17

11:                                               ; preds = %4
  %12 = load ptr, ptr %0, align 8, !tbaa !189
  %13 = tail call i32 @sqlite3_blob_bytes(ptr noundef %12) #14
  %14 = sext i32 %13 to i64
  %15 = add nsw i64 %1, %14
  %16 = getelementptr inbounds nuw i8, ptr %0, i64 16
  store i64 %15, ptr %16, align 8, !tbaa !210
  br label %17

17:                                               ; preds = %._crit_edge, %11, %7, %5
  %18 = phi i64 [ %.pre, %._crit_edge ], [ %15, %11 ], [ %10, %7 ], [ %1, %5 ]
  ret i64 %18
}